; Function Attrs: mustprogress uwtable
define internal void @_ZN6google8protobuf4util12_GLOBAL__N_126DescriptorPoolTypeResolver15ResolveEnumTypeERKNSt7__cxx1112basic_stringIcSt11char_traitsIcESaIcEEEPNS0_4EnumE(ptr noalias sret(%"class.absl::lts_20230802::Status") align 8 %agg.result, ptr noundef nonnull align 8 dereferenceable(48) %this, ptr noundef nonnull align 8 dereferenceable(32) %type_url, ptr noundef %enum_type) unnamed_addr #3 align 2 personality ptr @__gxx_personality_v0 {
entry:
  %type_name = alloca %"class.std::__cxx11::basic_string", align 8
  %status = alloca %"class.absl::lts_20230802::Status", align 8
  %ref.tmp = alloca %"class.std::__cxx11::basic_string", align 8
  %ref.tmp11 = alloca %"class.absl::lts_20230802::AlphaNum", align 8
  %ref.tmp13 = alloca %"class.absl::lts_20230802::AlphaNum", align 8
  call void @_ZNSt7__cxx1112basic_stringIcSt11char_traitsIcESaIcEEC1Ev(ptr noundef nonnull align 8 dereferenceable(32) %type_name) #13
  %call = call { i64, ptr } @_ZNKSt7__cxx1112basic_stringIcSt11char_traitsIcESaIcEEcvSt17basic_string_viewIcS2_EEv(ptr noundef nonnull align 8 dereferenceable(32) %type_url) #13
  %0 = extractvalue { i64, ptr } %call, 0
  %1 = extractvalue { i64, ptr } %call, 1
  invoke fastcc void @_ZN6google8protobuf4util12_GLOBAL__N_126DescriptorPoolTypeResolver12ParseTypeUrlESt17basic_string_viewIcSt11char_traitsIcEEPNSt7__cxx1112basic_stringIcS6_SaIcEEE(ptr noalias nonnull align 8 %status, ptr noundef nonnull align 8 dereferenceable(48) %this, i64 %0, ptr %1, ptr noundef nonnull %type_name)
          to label %invoke.cont3 unwind label %lpad

invoke.cont3:                                     ; preds = %entry
  %2 = load i64, ptr %status, align 8
  %cmp.i = icmp eq i64 %2, 0
  br i1 %cmp.i, label %if.end, label %if.then

if.then:                                          ; preds = %invoke.cont3
  store i64 %2, ptr %agg.result, align 8
  store i64 54, ptr %status, align 8
  br label %cleanup

lpad:                                             ; preds = %entry
  %3 = landingpad { ptr, i32 }
          cleanup
  br label %ehcleanup23

lpad2:                                            ; preds = %if.end19, %invoke.cont12, %if.end
  %4 = landingpad { ptr, i32 }
          cleanup
  br label %ehcleanup

if.end:                                           ; preds = %invoke.cont3
  %pool_ = getelementptr inbounds i8, ptr %this, i64 40
  %5 = load ptr, ptr %pool_, align 8
  %call6 = call { i64, ptr } @_ZNKSt7__cxx1112basic_stringIcSt11char_traitsIcESaIcEEcvSt17basic_string_viewIcS2_EEv(ptr noundef nonnull align 8 dereferenceable(32) %type_name) #13
  %6 = extractvalue { i64, ptr } %call6, 0
  %7 = extractvalue { i64, ptr } %call6, 1
  %call8 = invoke noundef ptr @_ZNK6google8protobuf14DescriptorPool18FindEnumTypeByNameESt17basic_string_viewIcSt11char_traitsIcEE(ptr noundef nonnull align 8 dereferenceable(96) %5, i64 %6, ptr %7)
          to label %invoke.cont7 unwind label %lpad2

invoke.cont7:                                     ; preds = %if.end
  %cmp = icmp eq ptr %call8, null
  br i1 %cmp, label %invoke.cont12, label %if.end19

invoke.cont12:                                    ; preds = %invoke.cont7
  store i64 32, ptr %ref.tmp11, align 8
  %8 = getelementptr inbounds i8, ptr %ref.tmp11, i64 8
  store ptr @.str, ptr %8, align 8
  %call.i = call { i64, ptr } @_ZNKSt7__cxx1112basic_stringIcSt11char_traitsIcESaIcEEcvSt17basic_string_viewIcS2_EEv(ptr noundef nonnull align 8 dereferenceable(32) %type_name) #13
  %9 = extractvalue { i64, ptr } %call.i, 0
  store i64 %9, ptr %ref.tmp13, align 8
  %10 = getelementptr inbounds i8, ptr %ref.tmp13, i64 8
  %11 = extractvalue { i64, ptr } %call.i, 1
  store ptr %11, ptr %10, align 8
  invoke void @_ZN4absl12lts_202308026StrCatB5cxx11ERKNS0_8AlphaNumES3_(ptr nonnull sret(%"class.std::__cxx11::basic_string") align 8 %ref.tmp, ptr noundef nonnull align 8 dereferenceable(48) %ref.tmp11, ptr noundef nonnull align 8 dereferenceable(48) %ref.tmp13)
          to label %invoke.cont15 unwind label %lpad2

invoke.cont15:                                    ; preds = %invoke.cont12
  %call16 = call { i64, ptr } @_ZNKSt7__cxx1112basic_stringIcSt11char_traitsIcESaIcEEcvSt17basic_string_viewIcS2_EEv(ptr noundef nonnull align 8 dereferenceable(32) %ref.tmp) #13
  %12 = extractvalue { i64, ptr } %call16, 0
  %13 = extractvalue { i64, ptr } %call16, 1
  invoke void @_ZN4absl12lts_2023080220InvalidArgumentErrorESt17basic_string_viewIcSt11char_traitsIcEE(ptr sret(%"class.absl::lts_20230802::Status") align 8 %agg.result, i64 %12, ptr %13)
          to label %invoke.cont18 unwind label %lpad17

invoke.cont18:                                    ; preds = %invoke.cont15
  call void @_ZNSt7__cxx1112basic_stringIcSt11char_traitsIcESaIcEED1Ev(ptr noundef nonnull align 8 dereferenceable(32) %ref.tmp) #13
  br label %cleanup

lpad17:                                           ; preds = %invoke.cont15
  %14 = landingpad { ptr, i32 }
          cleanup
  call void @_ZNSt7__cxx1112basic_stringIcSt11char_traitsIcESaIcEED1Ev(ptr noundef nonnull align 8 dereferenceable(32) %ref.tmp) #13
  br label %ehcleanup

if.end19:                                         ; preds = %invoke.cont7
  invoke fastcc void @_ZN6google8protobuf4util12_GLOBAL__N_121ConvertEnumDescriptorERKNS0_14EnumDescriptorEPNS0_4EnumE(ptr noundef nonnull align 8 dereferenceable(88) %call8, ptr noundef %enum_type)
          to label %invoke.cont20 unwind label %lpad2

invoke.cont20:                                    ; preds = %if.end19
  store i64 0, ptr %agg.result, align 8
  br label %cleanup

cleanup:                                          ; preds = %invoke.cont20, %invoke.cont18, %if.then
  %15 = load i64, ptr %status, align 8
  %and.i.i.i = and i64 %15, 1
  %cmp.i.i.i = icmp eq i64 %and.i.i.i, 0
  br i1 %cmp.i.i.i, label %_ZN4absl12lts_202308026StatusD2Ev.exit, label %if.then.i.i

if.then.i.i:                                      ; preds = %cleanup
  invoke void @_ZN4absl12lts_202308026Status15UnrefNonInlinedEm(i64 noundef %15)
          to label %_ZN4absl12lts_202308026StatusD2Ev.exit unwind label %terminate.lpad.i

terminate.lpad.i:                                 ; preds = %if.then.i.i
  %16 = landingpad { ptr, i32 }
          catch ptr null
  %17 = extractvalue { ptr, i32 } %16, 0
  call void @__clang_call_terminate(ptr %17) #15
  unreachable

_ZN4absl12lts_202308026StatusD2Ev.exit:           ; preds = %cleanup, %if.then.i.i
  call void @_ZNSt7__cxx1112basic_stringIcSt11char_traitsIcESaIcEED1Ev(ptr noundef nonnull align 8 dereferenceable(32) %type_name) #13
  ret void

ehcleanup:                                        ; preds = %lpad17, %lpad2
  %.pn = phi { ptr, i32 } [ %14, %lpad17 ], [ %4, %lpad2 ]
  call void @_ZN4absl12lts_202308026StatusD2Ev(ptr noundef nonnull align 8 dereferenceable(8) %status) #13
  br label %ehcleanup23

ehcleanup23:                                      ; preds = %ehcleanup, %lpad
  %.pn.pn = phi { ptr, i32 } [ %.pn, %ehcleanup ], [ %3, %lpad ]
  call void @_ZNSt7__cxx1112basic_stringIcSt11char_traitsIcESaIcEED1Ev(ptr noundef nonnull align 8 dereferenceable(32) %type_name) #13
  resume { ptr, i32 } %.pn.pn
}